target datalayout = "e-m:e-p270:32:32-p271:32:32-p272:64:64-i64:64-i128:128-f80:128-n8:16:32:64-S128"
target triple = "x86_64-pc-linux-gnu"

%struct.CoefVLCTable = type { i32, i32, ptr, ptr, ptr }

; Function Attrs: cold nounwind optsize uwtable
define internal i32 @init_coef_vlc(ptr noundef %0, ptr noundef %1, ptr noundef %2, ptr noundef %3, ptr noundef %4) #0 {
  %6 = alloca i32, align 4
  %7 = alloca ptr, align 8
  %8 = alloca ptr, align 8
  %9 = alloca ptr, align 8
  %10 = alloca ptr, align 8
  %11 = alloca ptr, align 8
  %12 = alloca i32, align 4
  %13 = alloca ptr, align 8
  %14 = alloca ptr, align 8
  %15 = alloca ptr, align 8
  %16 = alloca ptr, align 8
  %17 = alloca ptr, align 8
  %18 = alloca ptr, align 8
  %19 = alloca i32, align 4
  %20 = alloca i32, align 4
  %21 = alloca i32, align 4
  %22 = alloca i32, align 4
  %23 = alloca i32, align 4
  %24 = alloca i32, align 4
  %25 = alloca i32, align 4
  store ptr %0, ptr %7, align 8, !tbaa !80
  store ptr %1, ptr %8, align 8, !tbaa !82
  store ptr %2, ptr %9, align 8, !tbaa !84
  store ptr %3, ptr %10, align 8, !tbaa !82
  store ptr %4, ptr %11, align 8, !tbaa !78
  call void @llvm.lifetime.start.p0(i64 4, ptr %12) #8
  %26 = load ptr, ptr %11, align 8, !tbaa !78
  %27 = getelementptr inbounds nuw %struct.CoefVLCTable, ptr %26, i32 0, i32 0
  %28 = load i32, ptr %27, align 8, !tbaa !86
  store i32 %28, ptr %12, align 4, !tbaa !9
  call void @llvm.lifetime.start.p0(i64 8, ptr %13) #8
  %29 = load ptr, ptr %11, align 8, !tbaa !78
  %30 = getelementptr inbounds nuw %struct.CoefVLCTable, ptr %29, i32 0, i32 3
  %31 = load ptr, ptr %30, align 8, !tbaa !88
  store ptr %31, ptr %13, align 8, !tbaa !63
  call void @llvm.lifetime.start.p0(i64 8, ptr %14) #8
  %32 = load ptr, ptr %11, align 8, !tbaa !78
  %33 = getelementptr inbounds nuw %struct.CoefVLCTable, ptr %32, i32 0, i32 2
  %34 = load ptr, ptr %33, align 8, !tbaa !89
  store ptr %34, ptr %14, align 8, !tbaa !90
  call void @llvm.lifetime.start.p0(i64 8, ptr %15) #8
  %35 = load ptr, ptr %11, align 8, !tbaa !78
  %36 = getelementptr inbounds nuw %struct.CoefVLCTable, ptr %35, i32 0, i32 4
  %37 = load ptr, ptr %36, align 8, !tbaa !91
  store ptr %37, ptr %15, align 8, !tbaa !92
  call void @llvm.lifetime.start.p0(i64 8, ptr %16) #8
  call void @llvm.lifetime.start.p0(i64 8, ptr %17) #8
  call void @llvm.lifetime.start.p0(i64 8, ptr %18) #8
  call void @llvm.lifetime.start.p0(i64 4, ptr %19) #8
  call void @llvm.lifetime.start.p0(i64 4, ptr %20) #8
  call void @llvm.lifetime.start.p0(i64 4, ptr %21) #8
  call void @llvm.lifetime.start.p0(i64 4, ptr %22) #8
  call void @llvm.lifetime.start.p0(i64 4, ptr %23) #8
  call void @llvm.lifetime.start.p0(i64 4, ptr %24) #8
  %38 = load ptr, ptr %7, align 8, !tbaa !80
  %39 = load i32, ptr %12, align 4, !tbaa !9
  %40 = load ptr, ptr %13, align 8, !tbaa !63
  %41 = load ptr, ptr %14, align 8, !tbaa !90
  %42 = call i32 @ff_vlc_init_sparse(ptr noundef %38, i32 noundef 9, i32 noundef %39, ptr noundef %40, i32 noundef 1, i32 noundef 1, ptr noundef %41, i32 noundef 4, i32 noundef 4, ptr noundef null, i32 noundef 0, i32 noundef 0, i32 noundef 0)
  store i32 %42, ptr %24, align 4, !tbaa !9
  %43 = load i32, ptr %24, align 4, !tbaa !9
  %44 = icmp slt i32 %43, 0
  br i1 %44, label %45, label %47

45:                                               ; preds = %5
  %46 = load i32, ptr %24, align 4, !tbaa !9
  store i32 %46, ptr %6, align 4
  store i32 1, ptr %25, align 4
  br label %117

47:                                               ; preds = %5
  %48 = load i32, ptr %12, align 4, !tbaa !9
  %49 = sext i32 %48 to i64
  %50 = call ptr @av_malloc_array(i64 noundef %49, i64 noundef 2)
  store ptr %50, ptr %16, align 8, !tbaa !92
  %51 = load i32, ptr %12, align 4, !tbaa !9
  %52 = sext i32 %51 to i64
  %53 = call ptr @av_malloc_array(i64 noundef %52, i64 noundef 4)
  store ptr %53, ptr %18, align 8, !tbaa !69
  %54 = load i32, ptr %12, align 4, !tbaa !9
  %55 = sext i32 %54 to i64
  %56 = call ptr @av_malloc_array(i64 noundef %55, i64 noundef 2)
  store ptr %56, ptr %17, align 8, !tbaa !92
  %57 = load ptr, ptr %16, align 8, !tbaa !92
  %58 = icmp ne ptr %57, null
  br i1 %58, label %59, label %65

59:                                               ; preds = %47
  %60 = load ptr, ptr %18, align 8, !tbaa !69
  %61 = icmp ne ptr %60, null
  br i1 %61, label %62, label %65

62:                                               ; preds = %59
  %63 = load ptr, ptr %17, align 8, !tbaa !92
  %64 = icmp ne ptr %63, null
  br i1 %64, label %66, label %65

65:                                               ; preds = %62, %59, %47
  call void @av_freep(ptr noundef %16)
  call void @av_freep(ptr noundef %18)
  call void @av_freep(ptr noundef %17)
  store i32 -12, ptr %6, align 4
  store i32 1, ptr %25, align 4
  br label %117

66:                                               ; preds = %62
  store i32 2, ptr %19, align 4, !tbaa !9
  store i32 1, ptr %23, align 4, !tbaa !9
  store i32 0, ptr %22, align 4, !tbaa !9
  br label %67

67:                                               ; preds = %107, %66
  %68 = load i32, ptr %19, align 4, !tbaa !9
  %69 = load i32, ptr %12, align 4, !tbaa !9
  %70 = icmp slt i32 %68, %69
  br i1 %70, label %71, label %110

71:                                               ; preds = %67
  %72 = load i32, ptr %19, align 4, !tbaa !9
  %73 = trunc i32 %72 to i16
  %74 = load ptr, ptr %17, align 8, !tbaa !92
  %75 = load i32, ptr %22, align 4, !tbaa !9
  %76 = sext i32 %75 to i64
  %77 = getelementptr inbounds i16, ptr %74, i64 %76
  store i16 %73, ptr %77, align 2, !tbaa !59
  %78 = load ptr, ptr %15, align 8, !tbaa !92
  %79 = load i32, ptr %22, align 4, !tbaa !9
  %80 = add nsw i32 %79, 1
  store i32 %80, ptr %22, align 4, !tbaa !9
  %81 = sext i32 %79 to i64
  %82 = getelementptr inbounds i16, ptr %78, i64 %81
  %83 = load i16, ptr %82, align 2, !tbaa !59
  %84 = zext i16 %83 to i32
  store i32 %84, ptr %20, align 4, !tbaa !9
  store i32 0, ptr %21, align 4, !tbaa !9
  br label %85

85:                                               ; preds = %104, %71
  %86 = load i32, ptr %21, align 4, !tbaa !9
  %87 = load i32, ptr %20, align 4, !tbaa !9
  %88 = icmp slt i32 %86, %87
  br i1 %88, label %89, label %107

89:                                               ; preds = %85
  %90 = load i32, ptr %21, align 4, !tbaa !9
  %91 = trunc i32 %90 to i16
  %92 = load ptr, ptr %16, align 8, !tbaa !92
  %93 = load i32, ptr %19, align 4, !tbaa !9
  %94 = sext i32 %93 to i64
  %95 = getelementptr inbounds i16, ptr %92, i64 %94
  store i16 %91, ptr %95, align 2, !tbaa !59
  %96 = load i32, ptr %23, align 4, !tbaa !9
  %97 = sitofp i32 %96 to float
  %98 = load ptr, ptr %18, align 8, !tbaa !69
  %99 = load i32, ptr %19, align 4, !tbaa !9
  %100 = sext i32 %99 to i64
  %101 = getelementptr inbounds float, ptr %98, i64 %100
  store float %97, ptr %101, align 4, !tbaa !56
  %102 = load i32, ptr %19, align 4, !tbaa !9
  %103 = add nsw i32 %102, 1
  store i32 %103, ptr %19, align 4, !tbaa !9
  br label %104

104:                                              ; preds = %89
  %105 = load i32, ptr %21, align 4, !tbaa !9
  %106 = add nsw i32 %105, 1
  store i32 %106, ptr %21, align 4, !tbaa !9
  br label %85, !llvm.loop !93

107:                                              ; preds = %85
  %108 = load i32, ptr %23, align 4, !tbaa !9
  %109 = add nsw i32 %108, 1
  store i32 %109, ptr %23, align 4, !tbaa !9
  br label %67, !llvm.loop !94

110:                                              ; preds = %67
  %111 = load ptr, ptr %16, align 8, !tbaa !92
  %112 = load ptr, ptr %8, align 8, !tbaa !82
  store ptr %111, ptr %112, align 8, !tbaa !92
  %113 = load ptr, ptr %18, align 8, !tbaa !69
  %114 = load ptr, ptr %9, align 8, !tbaa !84
  store ptr %113, ptr %114, align 8, !tbaa !69
  %115 = load ptr, ptr %17, align 8, !tbaa !92
  %116 = load ptr, ptr %10, align 8, !tbaa !82
  store ptr %115, ptr %116, align 8, !tbaa !92
  store i32 0, ptr %6, align 4
  store i32 1, ptr %25, align 4
  br label %117

117:                                              ; preds = %110, %65, %45
  call void @llvm.lifetime.end.p0(i64 4, ptr %24) #8
  call void @llvm.lifetime.end.p0(i64 4, ptr %23) #8
  call void @llvm.lifetime.end.p0(i64 4, ptr %22) #8
  call void @llvm.lifetime.end.p0(i64 4, ptr %21) #8
  call void @llvm.lifetime.end.p0(i64 4, ptr %20) #8
  call void @llvm.lifetime.end.p0(i64 4, ptr %19) #8
  call void @llvm.lifetime.end.p0(i64 8, ptr %18) #8
  call void @llvm.lifetime.end.p0(i64 8, ptr %17) #8
  call void @llvm.lifetime.end.p0(i64 8, ptr %16) #8
  call void @llvm.lifetime.end.p0(i64 8, ptr %15) #8
  call void @llvm.lifetime.end.p0(i64 8, ptr %14) #8
  call void @llvm.lifetime.end.p0(i64 8, ptr %13) #8
  call void @llvm.lifetime.end.p0(i64 4, ptr %12) #8
  %118 = load i32, ptr %6, align 4
  ret i32 %118
}