; Function Attrs: cold nounwind optsize uwtable
define internal fastcc range(i32 -2147483648, 1) i32 @init_coef_vlc(ptr noundef %0, ptr noundef writeonly captures(none) %1, ptr noundef writeonly captures(none) %2, ptr noundef writeonly captures(none) %3, ptr noundef readonly captures(none) %4) unnamed_addr #0 {
  %6 = alloca ptr, align 8
  %7 = alloca ptr, align 8
  %8 = alloca ptr, align 8
  %9 = load i32, ptr %4, align 8, !tbaa !76
  %10 = getelementptr inbounds nuw i8, ptr %4, i64 16
  %11 = load ptr, ptr %10, align 8, !tbaa !78
  %12 = getelementptr inbounds nuw i8, ptr %4, i64 8
  %13 = load ptr, ptr %12, align 8, !tbaa !79
  %14 = getelementptr inbounds nuw i8, ptr %4, i64 24
  %15 = load ptr, ptr %14, align 8, !tbaa !80
  call void @llvm.lifetime.start.p0(i64 8, ptr nonnull %6) #7
  call void @llvm.lifetime.start.p0(i64 8, ptr nonnull %7) #7
  call void @llvm.lifetime.start.p0(i64 8, ptr nonnull %8) #7
  %16 = tail call i32 @ff_vlc_init_sparse(ptr noundef %0, i32 noundef 9, i32 noundef %9, ptr noundef %11, i32 noundef 1, i32 noundef 1, ptr noundef %13, i32 noundef 4, i32 noundef 4, ptr noundef null, i32 noundef 0, i32 noundef 0, i32 noundef 0) #7
  %17 = icmp slt i32 %16, 0
  br i1 %17, label %43, label %18

18:                                               ; preds = %5
  %19 = sext i32 %9 to i64
  %20 = tail call ptr @av_malloc_array(i64 noundef %19, i64 noundef 2) #7
  store ptr %20, ptr %6, align 8, !tbaa !81
  %21 = tail call ptr @av_malloc_array(i64 noundef %19, i64 noundef 4) #7
  store ptr %21, ptr %8, align 8, !tbaa !64
  %22 = tail call ptr @av_malloc_array(i64 noundef %19, i64 noundef 2) #7
  store ptr %22, ptr %7, align 8, !tbaa !81
  %23 = icmp ne ptr %20, null
  %24 = icmp ne ptr %21, null
  %or.cond = select i1 %23, i1 %24, i1 false
  %25 = icmp ne ptr %22, null
  %or.cond3 = select i1 %or.cond, i1 %25, i1 false
  br i1 %or.cond3, label %.preheader, label %27

.preheader:                                       ; preds = %18
  %26 = icmp sgt i32 %9, 2
  br i1 %26, label %.lr.ph44, label %._crit_edge45

27:                                               ; preds = %18
  call void @av_freep(ptr noundef nonnull %6) #7
  call void @av_freep(ptr noundef nonnull %8) #7
  call void @av_freep(ptr noundef nonnull %7) #7
  br label %43

.lr.ph44:                                         ; preds = %.preheader, %._crit_edge
  %indvars.iv47 = phi i64 [ %indvars.iv.next48, %._crit_edge ], [ 0, %.preheader ]
  %.03443 = phi i32 [ %41, %._crit_edge ], [ 1, %.preheader ]
  %.03741 = phi i32 [ %.1.lcssa, %._crit_edge ], [ 2, %.preheader ]
  %28 = trunc i32 %.03741 to i16
  %29 = getelementptr inbounds nuw i16, ptr %22, i64 %indvars.iv47
  store i16 %28, ptr %29, align 2, !tbaa !55
  %indvars.iv.next48 = add nuw nsw i64 %indvars.iv47, 1
  %30 = getelementptr inbounds nuw i16, ptr %15, i64 %indvars.iv47
  %31 = load i16, ptr %30, align 2, !tbaa !55
  %32 = zext i16 %31 to i32
  %.not = icmp eq i16 %31, 0
  br i1 %.not, label %._crit_edge, label %.lr.ph

.lr.ph:                                           ; preds = %.lr.ph44
  %33 = uitofp nneg i32 %.03443 to float
  %34 = sext i32 %.03741 to i64
  br label %35

35:                                               ; preds = %.lr.ph, %35
  %indvars.iv = phi i64 [ %34, %.lr.ph ], [ %indvars.iv.next, %35 ]
  %.03640 = phi i32 [ 0, %.lr.ph ], [ %39, %35 ]
  %36 = trunc i32 %.03640 to i16
  %37 = getelementptr inbounds i16, ptr %20, i64 %indvars.iv
  store i16 %36, ptr %37, align 2, !tbaa !55
  %38 = getelementptr inbounds float, ptr %21, i64 %indvars.iv
  store float %33, ptr %38, align 4, !tbaa !70
  %indvars.iv.next = add nsw i64 %indvars.iv, 1
  %39 = add nuw nsw i32 %.03640, 1
  %exitcond.not = icmp eq i32 %39, %32
  br i1 %exitcond.not, label %._crit_edge.loopexit, label %35, !llvm.loop !82

._crit_edge.loopexit:                             ; preds = %35
  %40 = trunc nsw i64 %indvars.iv.next to i32
  br label %._crit_edge

._crit_edge:                                      ; preds = %._crit_edge.loopexit, %.lr.ph44
  %.1.lcssa = phi i32 [ %.03741, %.lr.ph44 ], [ %40, %._crit_edge.loopexit ]
  %41 = add nuw nsw i32 %.03443, 1
  %42 = icmp slt i32 %.1.lcssa, %9
  br i1 %42, label %.lr.ph44, label %._crit_edge45, !llvm.loop !83

._crit_edge45:                                    ; preds = %._crit_edge, %.preheader
  store ptr %20, ptr %1, align 8, !tbaa !81
  store ptr %21, ptr %2, align 8, !tbaa !64
  store ptr %22, ptr %3, align 8, !tbaa !81
  br label %43

43:                                               ; preds = %5, %._crit_edge45, %27
  %.0 = phi i32 [ 0, %._crit_edge45 ], [ -12, %27 ], [ %16, %5 ]
  call void @llvm.lifetime.end.p0(i64 8, ptr nonnull %8) #7
  call void @llvm.lifetime.end.p0(i64 8, ptr nonnull %7) #7
  call void @llvm.lifetime.end.p0(i64 8, ptr nonnull %6) #7
  ret i32 %.0
}